target datalayout = "e-m:e-p270:32:32-p271:32:32-p272:64:64-i64:64-i128:128-f80:128-n8:16:32:64-S128"
target triple = "x86_64-pc-linux-gnu"

%struct.AVRational = type { i32, i32 }
%struct.Mpeg4DecContext = type { %struct.MpegEncContext, i32, i32, i32, i32, i32, i32, i32, i32, i32, [2 x [2 x i32]], [2 x [2 x i32]], [4 x [2 x i16]], [2 x i32], i32, i32, i32, i32, i32, i32, i32, i32, i32, i32, i32, i32, ptr, i32, i32, i32, i32, i32, i32, i32, %struct.Mpeg4VideoDSPContext, ptr, ptr, [12 x [64 x i32]], i32, [3 x [256 x i16]] }
%struct.MpegEncContext = type { ptr, i32, i32, i32, [12 x i32], i32, %struct.ScanTable, %struct.ScanTable, [64 x i8], [64 x i8], ptr, ptr, i32, i32, i32, i32, i32, i32, i32, i32, i32, i32, i32, i32, i32, i32, i32, i32, i32, i32, i32, i32, i64, i64, ptr, %struct.BufferPoolContext, i32, i32, %union.anon, i32, %struct.MPVWorkPicture, %struct.MPVWorkPicture, %struct.MPVWorkPicture, i32, [3 x i32], ptr, [3 x ptr], ptr, ptr, ptr, ptr, ptr, ptr, [3 x ptr], i32, ptr, ptr, ptr, ptr, %struct.ScratchpadContext, i32, i32, i32, i32, i32, i32, %struct.BlockDSPContext, %struct.H264ChromaContext, %struct.HpelDSPContext, %struct.IDCTDSPContext, %struct.QpelDSPContext, %struct.VideoDSPContext, %struct.H263DSPContext, ptr, [2 x [2 x ptr]], i32, i32, [2 x [4 x [2 x i32]]], [2 x [2 x i32]], [2 x [2 x [2 x i32]]], [2 x [64 x i16]], i32, i32, i32, i32, i32, [6 x i32], [6 x i32], [3 x ptr], ptr, [64 x i16], [64 x i16], [64 x i16], [64 x i16], i32, i32, %struct.GetBitContext, i32, i32, i32, i32, i32, i32, i32, i32, i32, i32, i32, i32, i32, i32, i32, i64, i64, i16, i16, i16, i16, i32, i32, i32, i32, i32, i32, i32, i32, i32, [3 x i32], i32, i32, i32, i32, i32, i32, %struct.GetBitContext, i32, [2 x [2 x i32]], i32, i32, i32, i32, i32, i32, i32, i32, i32, i32, i32, i32, i32, i32, [2 x i32], i32, i32, ptr, ptr, ptr, ptr, ptr, i32, i32, %struct.ERContext }
%struct.ScanTable = type { ptr, [64 x i8], [64 x i8] }
%struct.BufferPoolContext = type { ptr, ptr, ptr, ptr, ptr, i32, i32, i32 }
%union.anon = type { [32 x ptr] }
%struct.MPVWorkPicture = type { [3 x ptr], [3 x i64], ptr, ptr, [2 x ptr], ptr, ptr, [2 x ptr], i32 }
%struct.ScratchpadContext = type { ptr, ptr, %union.anon.0, i32 }
%union.anon.0 = type { ptr }
%struct.BlockDSPContext = type { ptr, ptr, [2 x ptr] }
%struct.H264ChromaContext = type { [4 x ptr], [4 x ptr] }
%struct.HpelDSPContext = type { [4 x [4 x ptr]], [4 x [4 x ptr]], [4 x [4 x ptr]], [4 x ptr] }
%struct.IDCTDSPContext = type { ptr, ptr, ptr, ptr, ptr, ptr, [64 x i8], i32, i32 }
%struct.QpelDSPContext = type { [2 x [16 x ptr]], [2 x [16 x ptr]], [2 x [16 x ptr]] }
%struct.VideoDSPContext = type { ptr, ptr }
%struct.H263DSPContext = type { ptr, ptr }
%struct.GetBitContext = type { ptr, ptr, i32, i32, i32 }
%struct.ERContext = type { ptr, ptr, i32, ptr, i32, i32, i32, i64, i64, i32, i32, ptr, ptr, [3 x ptr], ptr, ptr, [2 x [4 x [2 x i32]]], %struct.ERPicture, %struct.ERPicture, %struct.ERPicture, [2 x ptr], [2 x ptr], i16, i16, i32, i32, ptr, ptr }
%struct.ERPicture = type { ptr, ptr, ptr, [2 x ptr], [2 x ptr], ptr, i32 }
%struct.Mpeg4VideoDSPContext = type { ptr, ptr }
%struct.AVCodecContext = type { ptr, i32, i32, ptr, i32, i32, ptr, ptr, ptr, i64, i32, i32, ptr, i32, %struct.AVRational, %struct.AVRational, %struct.AVRational, i32, i32, i32, i32, i32, %struct.AVRational, i32, i32, i32, i32, i32, i32, i32, i32, i32, i32, i32, ptr, ptr, i32, float, float, float, float, float, float, float, float, float, i32, i32, i32, i32, i32, i32, i32, i32, i32, i32, i32, i32, ptr, ptr, ptr, i32, i32, i32, i32, i32, i32, i32, i32, i32, i32, %struct.AVChannelLayout, i32, i32, i32, i32, i32, i32, i32, i32, ptr, i32, i32, i32, float, float, i32, i32, i32, i32, i32, ptr, i64, i64, float, float, i32, i32, ptr, ptr, i32, i32, i32, i32, i32, ptr, ptr, ptr, ptr, i32, i32, [8 x i64], i32, i32, i32, i32, i32, i32, i32, ptr, ptr, i32, i32, i32, i32, i32, i32, i32, i32, i32, i32, ptr, ptr, i32, i32, ptr, ptr, ptr, ptr, i32, i32, i64, i32, i32, i64, ptr, i64, ptr, i32, ptr, i32 }
%struct.AVChannelLayout = type { i32, i32, %union.anon.1, ptr }
%union.anon.1 = type { i64 }
%struct.MPVUnquantDSPContext = type { ptr, ptr, ptr, ptr, ptr, ptr }
%struct.AVCodecInternal = type { i32, i32, i32, ptr, ptr, ptr, ptr, ptr, ptr, ptr, i32, ptr, ptr, ptr, i32, i32, ptr, i32, ptr, ptr, i32, i32 }

@decode_init.init_static_once = internal global i32 0, align 4
@ff_mpeg4_y_dc_scale_table = external constant [32 x i8], align 16
@ff_mpeg4_c_dc_scale_table = external constant [32 x i8], align 16

; Function Attrs: inlinehint nounwind uwtable
define internal i32 @init_get_bits(ptr noundef %0, ptr noundef %1, i32 noundef %2) #3 {
  %4 = alloca ptr, align 8
  %5 = alloca ptr, align 8
  %6 = alloca i32, align 4
  %7 = alloca i32, align 4
  %8 = alloca i32, align 4
  store ptr %0, ptr %4, align 8, !tbaa !116
  store ptr %1, ptr %5, align 8, !tbaa !9
  store i32 %2, ptr %6, align 4, !tbaa !47
  call void @llvm.lifetime.start.p0(i64 4, ptr %7) #13
  call void @llvm.lifetime.start.p0(i64 4, ptr %8) #13
  store i32 0, ptr %8, align 4, !tbaa !47
  %9 = load i32, ptr %6, align 4, !tbaa !47
  %10 = icmp sge i32 %9, 2147483135
  br i1 %10, label %17, label %11

11:                                               ; preds = %3
  %12 = load i32, ptr %6, align 4, !tbaa !47
  %13 = icmp slt i32 %12, 0
  br i1 %13, label %17, label %14

14:                                               ; preds = %11
  %15 = load ptr, ptr %5, align 8, !tbaa !9
  %16 = icmp ne ptr %15, null
  br i1 %16, label %18, label %17

17:                                               ; preds = %14, %11, %3
  store i32 0, ptr %6, align 4, !tbaa !47
  store ptr null, ptr %5, align 8, !tbaa !9
  store i32 -1094995529, ptr %8, align 4, !tbaa !47
  br label %18

18:                                               ; preds = %17, %14
  %19 = load i32, ptr %6, align 4, !tbaa !47
  %20 = add nsw i32 %19, 7
  %21 = ashr i32 %20, 3
  store i32 %21, ptr %7, align 4, !tbaa !47
  %22 = load ptr, ptr %5, align 8, !tbaa !9
  %23 = load ptr, ptr %4, align 8, !tbaa !116
  %24 = getelementptr inbounds nuw %struct.GetBitContext, ptr %23, i32 0, i32 0
  store ptr %22, ptr %24, align 8, !tbaa !119
  %25 = load i32, ptr %6, align 4, !tbaa !47
  %26 = load ptr, ptr %4, align 8, !tbaa !116
  %27 = getelementptr inbounds nuw %struct.GetBitContext, ptr %26, i32 0, i32 3
  store i32 %25, ptr %27, align 4, !tbaa !120
  %28 = load i32, ptr %6, align 4, !tbaa !47
  %29 = add nsw i32 %28, 8
  %30 = load ptr, ptr %4, align 8, !tbaa !116
  %31 = getelementptr inbounds nuw %struct.GetBitContext, ptr %30, i32 0, i32 4
  store i32 %29, ptr %31, align 8, !tbaa !312
  %32 = load ptr, ptr %5, align 8, !tbaa !9
  %33 = load i32, ptr %7, align 4, !tbaa !47
  %34 = sext i32 %33 to i64
  %35 = getelementptr inbounds i8, ptr %32, i64 %34
  %36 = load ptr, ptr %4, align 8, !tbaa !116
  %37 = getelementptr inbounds nuw %struct.GetBitContext, ptr %36, i32 0, i32 1
  store ptr %35, ptr %37, align 8, !tbaa !313
  %38 = load ptr, ptr %4, align 8, !tbaa !116
  %39 = getelementptr inbounds nuw %struct.GetBitContext, ptr %38, i32 0, i32 2
  store i32 0, ptr %39, align 8, !tbaa !118
  %40 = load i32, ptr %8, align 4, !tbaa !47
  call void @llvm.lifetime.end.p0(i64 4, ptr %8) #13
  call void @llvm.lifetime.end.p0(i64 4, ptr %7) #13
  ret i32 %40
}

; Function Attrs: inlinehint nounwind uwtable
define internal i32 @init_get_bits8(ptr noundef %0, ptr noundef %1, i32 noundef %2) #3 {
  %4 = alloca ptr, align 8
  %5 = alloca ptr, align 8
  %6 = alloca i32, align 4
  store ptr %0, ptr %4, align 8, !tbaa !116
  store ptr %1, ptr %5, align 8, !tbaa !9
  store i32 %2, ptr %6, align 4, !tbaa !47
  %7 = load i32, ptr %6, align 4, !tbaa !47
  %8 = icmp sgt i32 %7, 268435455
  br i1 %8, label %12, label %9

9:                                                ; preds = %3
  %10 = load i32, ptr %6, align 4, !tbaa !47
  %11 = icmp slt i32 %10, 0
  br i1 %11, label %12, label %13

12:                                               ; preds = %9, %3
  store i32 -1, ptr %6, align 4, !tbaa !47
  br label %13

13:                                               ; preds = %12, %9
  %14 = load ptr, ptr %4, align 8, !tbaa !116
  %15 = load ptr, ptr %5, align 8, !tbaa !9
  %16 = load i32, ptr %6, align 4, !tbaa !47
  %17 = mul nsw i32 %16, 8
  %18 = call i32 @init_get_bits(ptr noundef %14, ptr noundef %15, i32 noundef %17)
  ret i32 %18
}

; Function Attrs: cold nounwind optsize uwtable
define internal i32 @decode_init(ptr noundef %0) #5 {
  %2 = alloca i32, align 4
  %3 = alloca ptr, align 8
  %4 = alloca ptr, align 8
  %5 = alloca ptr, align 8
  %6 = alloca %struct.MPVUnquantDSPContext, align 8
  %7 = alloca i32, align 4
  %8 = alloca i32, align 4
  %9 = alloca %struct.GetBitContext, align 8
  store ptr %0, ptr %3, align 8, !tbaa !159
  call void @llvm.lifetime.start.p0(i64 8, ptr %4) #13
  %10 = load ptr, ptr %3, align 8, !tbaa !159
  %11 = getelementptr inbounds nuw %struct.AVCodecContext, ptr %10, i32 0, i32 6
  %12 = load ptr, ptr %11, align 8, !tbaa !160
  store ptr %12, ptr %4, align 8, !tbaa !14
  call void @llvm.lifetime.start.p0(i64 8, ptr %5) #13
  %13 = load ptr, ptr %4, align 8, !tbaa !14
  %14 = getelementptr inbounds nuw %struct.Mpeg4DecContext, ptr %13, i32 0, i32 0
  store ptr %14, ptr %5, align 8, !tbaa !4
  call void @llvm.lifetime.start.p0(i64 48, ptr %6) #13
  call void @llvm.lifetime.start.p0(i64 4, ptr %7) #13
  %15 = load ptr, ptr %4, align 8, !tbaa !14
  %16 = getelementptr inbounds nuw %struct.Mpeg4DecContext, ptr %15, i32 0, i32 25
  store i32 -1, ptr %16, align 8, !tbaa !162
  %17 = load ptr, ptr %4, align 8, !tbaa !14
  %18 = getelementptr inbounds nuw %struct.Mpeg4DecContext, ptr %17, i32 0, i32 24
  store i32 -1, ptr %18, align 4, !tbaa !161
  %19 = load ptr, ptr %4, align 8, !tbaa !14
  %20 = getelementptr inbounds nuw %struct.Mpeg4DecContext, ptr %19, i32 0, i32 23
  store i32 -1, ptr %20, align 8, !tbaa !123
  %21 = load ptr, ptr %4, align 8, !tbaa !14
  %22 = getelementptr inbounds nuw %struct.Mpeg4DecContext, ptr %21, i32 0, i32 22
  store i32 -1, ptr %22, align 4, !tbaa !122
  %23 = load ptr, ptr %3, align 8, !tbaa !159
  %24 = call i32 @ff_h263_decode_init(ptr noundef %23)
  store i32 %24, ptr %7, align 4, !tbaa !47
  %25 = icmp slt i32 %24, 0
  br i1 %25, label %26, label %28

26:                                               ; preds = %1
  %27 = load i32, ptr %7, align 4, !tbaa !47
  store i32 %27, ptr %2, align 4
  store i32 1, ptr %8, align 4
  br label %91

28:                                               ; preds = %1
  %29 = load ptr, ptr %3, align 8, !tbaa !159
  %30 = getelementptr inbounds nuw %struct.AVCodecContext, ptr %29, i32 0, i32 10
  %31 = load i32, ptr %30, align 8, !tbaa !175
  %32 = and i32 %31, 8388608
  call void @ff_mpv_unquantize_init(ptr noundef %6, i32 noundef %32)
  %33 = getelementptr inbounds nuw %struct.MPVUnquantDSPContext, ptr %6, i32 0, i32 4
  %34 = load ptr, ptr %33, align 8, !tbaa !249
  %35 = load ptr, ptr %4, align 8, !tbaa !14
  %36 = getelementptr inbounds nuw %struct.Mpeg4DecContext, ptr %35, i32 0, i32 36
  store ptr %34, ptr %36, align 8, !tbaa !227
  %37 = getelementptr inbounds nuw %struct.MPVUnquantDSPContext, ptr %6, i32 0, i32 2
  %38 = load ptr, ptr %37, align 8, !tbaa !251
  %39 = load ptr, ptr %4, align 8, !tbaa !14
  %40 = getelementptr inbounds nuw %struct.Mpeg4DecContext, ptr %39, i32 0, i32 35
  store ptr %38, ptr %40, align 8, !tbaa !226
  %41 = getelementptr inbounds nuw %struct.MPVUnquantDSPContext, ptr %6, i32 0, i32 3
  %42 = load ptr, ptr %41, align 8, !tbaa !252
  %43 = load ptr, ptr %5, align 8, !tbaa !4
  %44 = getelementptr inbounds nuw %struct.MpegEncContext, ptr %43, i32 0, i32 158
  store ptr %42, ptr %44, align 8, !tbaa !253
  %45 = load ptr, ptr %5, align 8, !tbaa !4
  %46 = getelementptr inbounds nuw %struct.MpegEncContext, ptr %45, i32 0, i32 47
  store ptr @ff_mpeg4_y_dc_scale_table, ptr %46, align 8, !tbaa !254
  %47 = load ptr, ptr %5, align 8, !tbaa !4
  %48 = getelementptr inbounds nuw %struct.MpegEncContext, ptr %47, i32 0, i32 48
  store ptr @ff_mpeg4_c_dc_scale_table, ptr %48, align 8, !tbaa !255
  %49 = load ptr, ptr %5, align 8, !tbaa !4
  %50 = getelementptr inbounds nuw %struct.MpegEncContext, ptr %49, i32 0, i32 15
  store i32 1, ptr %50, align 4, !tbaa !256
  %51 = load ptr, ptr %5, align 8, !tbaa !4
  %52 = getelementptr inbounds nuw %struct.MpegEncContext, ptr %51, i32 0, i32 122
  store i32 0, ptr %52, align 8, !tbaa !176
  %53 = load ptr, ptr %5, align 8, !tbaa !4
  %54 = getelementptr inbounds nuw %struct.MpegEncContext, ptr %53, i32 0, i32 156
  store ptr @mpeg4_decode_mb, ptr %54, align 8, !tbaa !212
  %55 = load ptr, ptr %4, align 8, !tbaa !14
  %56 = getelementptr inbounds nuw %struct.Mpeg4DecContext, ptr %55, i32 0, i32 3
  store i32 4, ptr %56, align 8, !tbaa !113
  %57 = load ptr, ptr %4, align 8, !tbaa !14
  %58 = getelementptr inbounds nuw %struct.Mpeg4DecContext, ptr %57, i32 0, i32 20
  store i32 5, ptr %58, align 4, !tbaa !110
  %59 = load ptr, ptr %3, align 8, !tbaa !159
  %60 = getelementptr inbounds nuw %struct.AVCodecContext, ptr %59, i32 0, i32 29
  store i32 1, ptr %60, align 8, !tbaa !257
  %61 = load ptr, ptr %5, align 8, !tbaa !4
  %62 = getelementptr inbounds nuw %struct.MpegEncContext, ptr %61, i32 0, i32 70
  call void @ff_qpeldsp_init(ptr noundef %62)
  %63 = load ptr, ptr %4, align 8, !tbaa !14
  %64 = getelementptr inbounds nuw %struct.Mpeg4DecContext, ptr %63, i32 0, i32 34
  call void @ff_mpeg4videodsp_init(ptr noundef %64)
  %65 = call i32 @pthread_once(ptr noundef @decode_init.init_static_once, ptr noundef @mpeg4_init_static)
  %66 = load ptr, ptr %3, align 8, !tbaa !159
  %67 = getelementptr inbounds nuw %struct.AVCodecContext, ptr %66, i32 0, i32 13
  %68 = load i32, ptr %67, align 8, !tbaa !258
  %69 = icmp ne i32 %68, 0
  br i1 %69, label %70, label %90

70:                                               ; preds = %28
  %71 = load ptr, ptr %3, align 8, !tbaa !159
  %72 = getelementptr inbounds nuw %struct.AVCodecContext, ptr %71, i32 0, i32 7
  %73 = load ptr, ptr %72, align 8, !tbaa !259
  %74 = getelementptr inbounds nuw %struct.AVCodecInternal, ptr %73, i32 0, i32 0
  %75 = load i32, ptr %74, align 8, !tbaa !260
  %76 = icmp ne i32 %75, 0
  br i1 %76, label %90, label %77

77:                                               ; preds = %70
  call void @llvm.lifetime.start.p0(i64 32, ptr %9) #13
  %78 = load ptr, ptr %3, align 8, !tbaa !159
  %79 = getelementptr inbounds nuw %struct.AVCodecContext, ptr %78, i32 0, i32 12
  %80 = load ptr, ptr %79, align 8, !tbaa !264
  %81 = load ptr, ptr %3, align 8, !tbaa !159
  %82 = getelementptr inbounds nuw %struct.AVCodecContext, ptr %81, i32 0, i32 13
  %83 = load i32, ptr %82, align 8, !tbaa !258
  %84 = call i32 @init_get_bits8(ptr noundef %9, ptr noundef %80, i32 noundef %83)
  %85 = icmp sge i32 %84, 0
  br i1 %85, label %86, label %89

86:                                               ; preds = %77
  %87 = load ptr, ptr %4, align 8, !tbaa !14
  %88 = call i32 @ff_mpeg4_parse_picture_header(ptr noundef %87, ptr noundef %9, i32 noundef 1, i32 noundef 0)
  br label %89

89:                                               ; preds = %86, %77
  call void @llvm.lifetime.end.p0(i64 32, ptr %9) #13
  br label %90

90:                                               ; preds = %89, %70, %28
  store i32 0, ptr %2, align 4
  store i32 1, ptr %8, align 4
  br label %91

91:                                               ; preds = %90, %26
  call void @llvm.lifetime.end.p0(i64 4, ptr %7) #13
  call void @llvm.lifetime.end.p0(i64 48, ptr %6) #13
  call void @llvm.lifetime.end.p0(i64 8, ptr %5) #13
  call void @llvm.lifetime.end.p0(i64 8, ptr %4) #13
  %92 = load i32, ptr %2, align 4
  ret i32 %92
}