; Function Attrs: cold nounwind optsize uwtable
define internal range(i32 -2147483648, 1) i32 @decode_init(ptr noundef %0) #6 {
  %2 = alloca %struct.MPVUnquantDSPContext, align 8
  %3 = alloca %struct.GetBitContext, align 8
  %4 = getelementptr inbounds nuw i8, ptr %0, i64 32
  %5 = load ptr, ptr %4, align 8, !tbaa !150
  call void @llvm.lifetime.start.p0(i64 48, ptr nonnull %2) #16
  %6 = getelementptr inbounds nuw i8, ptr %5, i64 4932
  tail call void @llvm.memset.p0.i64(ptr noundef nonnull align 4 dereferenceable(16) %6, i8 -1, i64 16, i1 false)
  %7 = tail call i32 @ff_h263_decode_init(ptr noundef %0) #16
  %8 = icmp slt i32 %7, 0
  br i1 %8, label %56, label %9

9:                                                ; preds = %1
  %10 = getelementptr inbounds nuw i8, ptr %0, i64 64
  %11 = load i32, ptr %10, align 8, !tbaa !203
  %12 = and i32 %11, 8388608
  call void @ff_mpv_unquantize_init(ptr noundef nonnull %2, i32 noundef %12) #16
  %13 = getelementptr inbounds nuw i8, ptr %2, i64 32
  %14 = load ptr, ptr %13, align 8, !tbaa !241
  %15 = getelementptr inbounds nuw i8, ptr %5, i64 5016
  store ptr %14, ptr %15, align 8, !tbaa !243
  %16 = getelementptr inbounds nuw i8, ptr %2, i64 16
  %17 = load ptr, ptr %16, align 8, !tbaa !244
  %18 = getelementptr inbounds nuw i8, ptr %5, i64 5008
  store ptr %17, ptr %18, align 8, !tbaa !245
  %19 = getelementptr inbounds nuw i8, ptr %2, i64 24
  %20 = load ptr, ptr %19, align 8, !tbaa !246
  %21 = getelementptr inbounds nuw i8, ptr %5, i64 4320
  store ptr %20, ptr %21, align 8, !tbaa !247
  %22 = getelementptr inbounds nuw i8, ptr %5, i64 1328
  store ptr @ff_mpeg4_y_dc_scale_table, ptr %22, align 8, !tbaa !248
  %23 = getelementptr inbounds nuw i8, ptr %5, i64 1336
  store ptr @ff_mpeg4_c_dc_scale_table, ptr %23, align 8, !tbaa !249
  %24 = getelementptr inbounds nuw i8, ptr %5, i64 500
  store i32 1, ptr %24, align 4, !tbaa !250
  %25 = getelementptr inbounds nuw i8, ptr %5, i64 4104
  store i32 0, ptr %25, align 8, !tbaa !171
  %26 = getelementptr inbounds nuw i8, ptr %5, i64 4304
  store ptr @mpeg4_decode_mb, ptr %26, align 8, !tbaa !205
  %27 = getelementptr inbounds nuw i8, ptr %5, i64 4816
  store i32 4, ptr %27, align 8, !tbaa !109
  %28 = getelementptr inbounds nuw i8, ptr %5, i64 4924
  store i32 5, ptr %28, align 4, !tbaa !105
  %29 = getelementptr inbounds nuw i8, ptr %0, i64 160
  store i32 1, ptr %29, align 8, !tbaa !251
  %30 = getelementptr inbounds nuw i8, ptr %5, i64 2128
  call void @ff_qpeldsp_init(ptr noundef nonnull %30) #16
  %31 = getelementptr inbounds nuw i8, ptr %5, i64 4992
  call void @ff_mpeg4videodsp_init(ptr noundef nonnull %31) #16
  %32 = call i32 @pthread_once(ptr noundef nonnull @decode_init.init_static_once, ptr noundef nonnull @mpeg4_init_static) #16
  %33 = getelementptr inbounds nuw i8, ptr %0, i64 80
  %34 = load i32, ptr %33, align 8, !tbaa !252
  %.not = icmp eq i32 %34, 0
  br i1 %.not, label %56, label %35

35:                                               ; preds = %9
  %36 = getelementptr inbounds nuw i8, ptr %0, i64 40
  %37 = load ptr, ptr %36, align 8, !tbaa !253
  %38 = load i32, ptr %37, align 8, !tbaa !254
  %.not28 = icmp eq i32 %38, 0
  br i1 %.not28, label %39, label %56

39:                                               ; preds = %35
  call void @llvm.lifetime.start.p0(i64 32, ptr nonnull %3) #16
  %40 = getelementptr inbounds nuw i8, ptr %0, i64 72
  %41 = load ptr, ptr %40, align 8, !tbaa !259
  %or.cond.i = icmp ugt i32 %34, 268435455
  %42 = shl nuw nsw i32 %34, 3
  %43 = select i1 %or.cond.i, i32 -8, i32 %42
  %or.cond.i.i = icmp ult i32 %43, 2147483135
  %44 = icmp ne ptr %41, null
  %or.cond3.i.i = and i1 %or.cond.i.i, %44
  %.018.i.i = select i1 %or.cond3.i.i, i32 %43, i32 0
  %.017.i.i = select i1 %or.cond.i.i, ptr %41, ptr null
  %45 = lshr exact i32 %.018.i.i, 3
  store ptr %.017.i.i, ptr %3, align 8, !tbaa !98
  %46 = getelementptr inbounds nuw i8, ptr %3, i64 20
  store i32 %.018.i.i, ptr %46, align 4, !tbaa !108
  %47 = add nuw nsw i32 %.018.i.i, 8
  %48 = getelementptr inbounds nuw i8, ptr %3, i64 24
  store i32 %47, ptr %48, align 8, !tbaa !229
  %49 = zext nneg i32 %45 to i64
  %50 = getelementptr inbounds nuw i8, ptr %.017.i.i, i64 %49
  %51 = getelementptr inbounds nuw i8, ptr %3, i64 8
  store ptr %50, ptr %51, align 8, !tbaa !230
  %52 = getelementptr inbounds nuw i8, ptr %3, i64 16
  store i32 0, ptr %52, align 8, !tbaa !96
  br i1 %or.cond3.i.i, label %53, label %55

53:                                               ; preds = %39
  %54 = call i32 @ff_mpeg4_parse_picture_header(ptr noundef nonnull %5, ptr noundef nonnull %3, i32 noundef 1, i32 noundef 0)
  br label %55

55:                                               ; preds = %53, %39
  call void @llvm.lifetime.end.p0(i64 32, ptr nonnull %3) #16
  br label %56

56:                                               ; preds = %9, %35, %55, %1
  %.0 = phi i32 [ %7, %1 ], [ 0, %55 ], [ 0, %35 ], [ 0, %9 ]
  call void @llvm.lifetime.end.p0(i64 48, ptr nonnull %2) #16
  ret i32 %.0
}